; Function Attrs: nounwind uwtable
define void @Gia_ManCollectVars_rec(i32 noundef %0, ptr noundef readonly captures(none) %1, ptr noundef captures(none) %2, ptr noundef readonly captures(none) %3) local_unnamed_addr #0 {
  %5 = getelementptr i8, ptr %3, i64 8
  %.val = load ptr, ptr %5, align 8, !tbaa !3
  %6 = ashr i32 %0, 5
  %7 = sext i32 %6 to i64
  %8 = getelementptr inbounds i32, ptr %.val, i64 %7
  %9 = load i32, ptr %8, align 4, !tbaa !10
  %10 = and i32 %0, 31
  %11 = shl nuw i32 1, %10
  %12 = and i32 %9, %11
  %.not = icmp eq i32 %12, 0
  br i1 %.not, label %13, label %58

13:                                               ; preds = %4
  %14 = or i32 %9, %11
  store i32 %14, ptr %8, align 4, !tbaa !10
  %15 = getelementptr i8, ptr %1, i64 8
  %.val21 = load ptr, ptr %15, align 8, !tbaa !11
  %16 = sext i32 %0 to i64
  %17 = getelementptr inbounds i32, ptr %.val21, i64 %16
  %18 = load i32, ptr %17, align 4, !tbaa !10
  %.not18 = icmp eq i32 %18, 0
  br i1 %.not18, label %.loopexit, label %19

19:                                               ; preds = %13
  %20 = sext i32 %18 to i64
  %21 = getelementptr inbounds i32, ptr %.val21, i64 %20
  %22 = load i32, ptr %21, align 4, !tbaa !10
  %.not1924 = icmp slt i32 %22, 1
  br i1 %.not1924, label %.loopexit, label %.lr.ph

.lr.ph:                                           ; preds = %19, %.lr.ph
  %indvars.iv = phi i64 [ %indvars.iv.next, %.lr.ph ], [ 1, %19 ]
  %23 = getelementptr inbounds nuw i32, ptr %21, i64 %indvars.iv
  %24 = load i32, ptr %23, align 4, !tbaa !10
  tail call void @Gia_ManCollectVars_rec(i32 noundef %24, ptr noundef %1, ptr noundef %2, ptr noundef %3)
  %indvars.iv.next = add nuw nsw i64 %indvars.iv, 1
  %25 = load i32, ptr %21, align 4, !tbaa !10
  %26 = sext i32 %25 to i64
  %.not19.not = icmp slt i64 %indvars.iv, %26
  br i1 %.not19.not, label %.lr.ph, label %.loopexit, !llvm.loop !13

.loopexit:                                        ; preds = %.lr.ph, %19, %13
  %27 = getelementptr inbounds nuw i8, ptr %2, i64 4
  %28 = load i32, ptr %27, align 4, !tbaa !15
  %29 = load i32, ptr %2, align 8, !tbaa !16
  %30 = icmp eq i32 %28, %29
  br i1 %30, label %31, label %.Vec_IntGrow.exit10_crit_edge.i

.Vec_IntGrow.exit10_crit_edge.i:                  ; preds = %.loopexit
  %.phi.trans.insert.i = getelementptr inbounds nuw i8, ptr %2, i64 8
  %.pre.i = load ptr, ptr %.phi.trans.insert.i, align 8, !tbaa !11
  br label %Vec_IntPush.exit

31:                                               ; preds = %.loopexit
  %32 = icmp slt i32 %28, 16
  br i1 %32, label %33, label %41

33:                                               ; preds = %31
  %34 = getelementptr inbounds nuw i8, ptr %2, i64 8
  %35 = load ptr, ptr %34, align 8, !tbaa !11
  %.not9.i.i = icmp eq ptr %35, null
  br i1 %.not9.i.i, label %38, label %36

36:                                               ; preds = %33
  %37 = tail call dereferenceable_or_null(64) ptr @realloc(ptr noundef nonnull %35, i64 noundef 64) #14
  br label %Vec_IntGrow.exit.i

38:                                               ; preds = %33
  %39 = tail call noalias dereferenceable_or_null(64) ptr @malloc(i64 noundef 64) #15
  br label %Vec_IntGrow.exit.i

Vec_IntGrow.exit.i:                               ; preds = %38, %36
  %40 = phi ptr [ %37, %36 ], [ %39, %38 ]
  store ptr %40, ptr %34, align 8, !tbaa !11
  store i32 16, ptr %2, align 8, !tbaa !16
  br label %Vec_IntPush.exit

41:                                               ; preds = %31
  %42 = shl nuw nsw i32 %28, 1
  %43 = getelementptr inbounds nuw i8, ptr %2, i64 8
  %44 = load ptr, ptr %43, align 8, !tbaa !11
  %.not9.i9.i = icmp eq ptr %44, null
  %45 = zext nneg i32 %42 to i64
  %46 = shl nuw nsw i64 %45, 2
  br i1 %.not9.i9.i, label %49, label %47

47:                                               ; preds = %41
  %48 = tail call ptr @realloc(ptr noundef nonnull %44, i64 noundef %46) #14
  br label %51

49:                                               ; preds = %41
  %50 = tail call noalias ptr @malloc(i64 noundef %46) #15
  br label %51

51:                                               ; preds = %49, %47
  %52 = phi ptr [ %48, %47 ], [ %50, %49 ]
  store ptr %52, ptr %43, align 8, !tbaa !11
  store i32 %42, ptr %2, align 8, !tbaa !16
  br label %Vec_IntPush.exit

Vec_IntPush.exit:                                 ; preds = %.Vec_IntGrow.exit10_crit_edge.i, %Vec_IntGrow.exit.i, %51
  %53 = phi ptr [ %.pre.i, %.Vec_IntGrow.exit10_crit_edge.i ], [ %52, %51 ], [ %40, %Vec_IntGrow.exit.i ]
  %54 = load i32, ptr %27, align 4, !tbaa !15
  %55 = add nsw i32 %54, 1
  store i32 %55, ptr %27, align 4, !tbaa !15
  %56 = sext i32 %54 to i64
  %57 = getelementptr inbounds i32, ptr %53, i64 %56
  store i32 %0, ptr %57, align 4, !tbaa !10
  br label %58

58:                                               ; preds = %4, %Vec_IntPush.exit
  ret void
}